target datalayout = "e-m:e-p270:32:32-p271:32:32-p272:64:64-i64:64-i128:128-f80:128-n8:16:32:64-S128"
target triple = "x86_64-pc-linux-gnu"

%"class.pxrInternal_v0_24__pxrReserved__::PcpNodeRef" = type { ptr, i64 }
%"class.pxrInternal_v0_24__pxrReserved__::TfCallContext" = type <{ ptr, ptr, i64, ptr, i8, [7 x i8] }>

@.str = private unnamed_addr constant [126 x i8] c"generated/home/dtcxzyw/WorkSpace/Projects/compilers/llvm-opt-benchmark/bench/openusd/OpenUSD/pxr/usd/pcp/strengthOrdering.cpp\00", align 1
@.str.1 = private unnamed_addr constant [23 x i8] c"Nodes are not siblings\00", align 1
@__func__._ZN32pxrInternal_v0_24__pxrReserved__36PcpCompareSiblingPayloadNodeStrengthERKNS_10PcpNodeRefEiS2_ = private unnamed_addr constant [37 x i8] c"PcpCompareSiblingPayloadNodeStrength\00", align 1
@__PRETTY_FUNCTION__._ZN32pxrInternal_v0_24__pxrReserved__36PcpCompareSiblingPayloadNodeStrengthERKNS_10PcpNodeRefEiS2_ = private unnamed_addr constant [120 x i8] c"int pxrInternal_v0_24__pxrReserved__::PcpCompareSiblingPayloadNodeStrength(const PcpNodeRef &, int, const PcpNodeRef &)\00", align 1

; Function Attrs: mustprogress nounwind uwtable
define linkonce_odr noundef zeroext i1 @_ZNK32pxrInternal_v0_24__pxrReserved__10PcpNodeRefeqERKS0_(ptr noundef nonnull align 8 dereferenceable(16) %0, ptr noundef nonnull align 8 dereferenceable(16) %1) #2 comdat align 2 {
  %3 = alloca ptr, align 8
  %4 = alloca ptr, align 8
  store ptr %0, ptr %3, align 8
  store ptr %1, ptr %4, align 8
  %5 = load ptr, ptr %3, align 8
  %6 = getelementptr inbounds nuw %"class.pxrInternal_v0_24__pxrReserved__::PcpNodeRef", ptr %5, i32 0, i32 1
  %7 = load i64, ptr %6, align 8
  %8 = load ptr, ptr %4, align 8
  %9 = getelementptr inbounds nuw %"class.pxrInternal_v0_24__pxrReserved__::PcpNodeRef", ptr %8, i32 0, i32 1
  %10 = load i64, ptr %9, align 8
  %11 = icmp eq i64 %7, %10
  br i1 %11, label %12, label %19

12:                                               ; preds = %2
  %13 = getelementptr inbounds nuw %"class.pxrInternal_v0_24__pxrReserved__::PcpNodeRef", ptr %5, i32 0, i32 0
  %14 = load ptr, ptr %13, align 8
  %15 = load ptr, ptr %4, align 8
  %16 = getelementptr inbounds nuw %"class.pxrInternal_v0_24__pxrReserved__::PcpNodeRef", ptr %15, i32 0, i32 0
  %17 = load ptr, ptr %16, align 8
  %18 = icmp eq ptr %14, %17
  br label %19

19:                                               ; preds = %12, %2
  %20 = phi i1 [ false, %2 ], [ %18, %12 ]
  ret i1 %20
}

; Function Attrs: mustprogress nounwind uwtable
define linkonce_odr void @_ZN32pxrInternal_v0_24__pxrReserved__13TfCallContextC2EPKcS2_mS2_(ptr noundef nonnull align 8 dereferenceable(33) %0, ptr noundef %1, ptr noundef %2, i64 noundef %3, ptr noundef %4) unnamed_addr #2 comdat align 2 {
  %6 = alloca ptr, align 8
  %7 = alloca ptr, align 8
  %8 = alloca ptr, align 8
  %9 = alloca i64, align 8
  %10 = alloca ptr, align 8
  store ptr %0, ptr %6, align 8
  store ptr %1, ptr %7, align 8
  store ptr %2, ptr %8, align 8
  store i64 %3, ptr %9, align 8
  store ptr %4, ptr %10, align 8
  %11 = load ptr, ptr %6, align 8
  %12 = getelementptr inbounds nuw %"class.pxrInternal_v0_24__pxrReserved__::TfCallContext", ptr %11, i32 0, i32 0
  %13 = load ptr, ptr %7, align 8
  store ptr %13, ptr %12, align 8
  %14 = getelementptr inbounds nuw %"class.pxrInternal_v0_24__pxrReserved__::TfCallContext", ptr %11, i32 0, i32 1
  %15 = load ptr, ptr %8, align 8
  store ptr %15, ptr %14, align 8
  %16 = getelementptr inbounds nuw %"class.pxrInternal_v0_24__pxrReserved__::TfCallContext", ptr %11, i32 0, i32 2
  %17 = load i64, ptr %9, align 8
  store i64 %17, ptr %16, align 8
  %18 = getelementptr inbounds nuw %"class.pxrInternal_v0_24__pxrReserved__::TfCallContext", ptr %11, i32 0, i32 3
  %19 = load ptr, ptr %10, align 8
  store ptr %19, ptr %18, align 8
  %20 = getelementptr inbounds nuw %"class.pxrInternal_v0_24__pxrReserved__::TfCallContext", ptr %11, i32 0, i32 4
  store i8 0, ptr %20, align 8
  ret void
}

; Function Attrs: mustprogress uwtable
define linkonce_odr noundef zeroext i1 @_ZNK32pxrInternal_v0_24__pxrReserved__10PcpNodeRefneERKS0_(ptr noundef nonnull align 8 dereferenceable(16) %0, ptr noundef nonnull align 8 dereferenceable(16) %1) #0 comdat align 2 {
  %3 = alloca ptr, align 8
  %4 = alloca ptr, align 8
  store ptr %0, ptr %3, align 8
  store ptr %1, ptr %4, align 8
  %5 = load ptr, ptr %3, align 8
  %6 = load ptr, ptr %4, align 8
  %7 = call noundef zeroext i1 @_ZNK32pxrInternal_v0_24__pxrReserved__10PcpNodeRefeqERKS0_(ptr noundef nonnull align 8 dereferenceable(16) %5, ptr noundef nonnull align 8 dereferenceable(16) %6)
  %8 = xor i1 %7, true
  ret i1 %8
}

; Function Attrs: mustprogress uwtable
define noundef i32 @_ZN32pxrInternal_v0_24__pxrReserved__36PcpCompareSiblingPayloadNodeStrengthERKNS_10PcpNodeRefEiS2_(ptr noundef nonnull align 8 dereferenceable(16) %0, i32 noundef %1, ptr noundef nonnull align 8 dereferenceable(16) %2) #0 {
  %4 = alloca i32, align 4
  %5 = alloca ptr, align 8
  %6 = alloca i32, align 4
  %7 = alloca ptr, align 8
  %8 = alloca %"class.pxrInternal_v0_24__pxrReserved__::PcpNodeRef", align 8
  %9 = alloca %"class.pxrInternal_v0_24__pxrReserved__::TfCallContext", align 8
  store ptr %0, ptr %5, align 8
  store i32 %1, ptr %6, align 4
  store ptr %2, ptr %7, align 8
  %10 = load ptr, ptr %5, align 8
  %11 = load ptr, ptr %7, align 8
  %12 = call { ptr, i64 } @_ZNK32pxrInternal_v0_24__pxrReserved__10PcpNodeRef13GetParentNodeEv(ptr noundef nonnull align 8 dereferenceable(16) %11)
  %13 = getelementptr inbounds nuw { ptr, i64 }, ptr %8, i32 0, i32 0
  %14 = extractvalue { ptr, i64 } %12, 0
  store ptr %14, ptr %13, align 8
  %15 = getelementptr inbounds nuw { ptr, i64 }, ptr %8, i32 0, i32 1
  %16 = extractvalue { ptr, i64 } %12, 1
  store i64 %16, ptr %15, align 8
  %17 = call noundef zeroext i1 @_ZNK32pxrInternal_v0_24__pxrReserved__10PcpNodeRefneERKS0_(ptr noundef nonnull align 8 dereferenceable(16) %10, ptr noundef nonnull align 8 dereferenceable(16) %8)
  br i1 %17, label %18, label %19

18:                                               ; preds = %3
  call void @_ZN32pxrInternal_v0_24__pxrReserved__13TfCallContextC2EPKcS2_mS2_(ptr noundef nonnull align 8 dereferenceable(33) %9, ptr noundef @.str, ptr noundef @__func__._ZN32pxrInternal_v0_24__pxrReserved__36PcpCompareSiblingPayloadNodeStrengthERKNS_10PcpNodeRefEiS2_, i64 noundef 383, ptr noundef @__PRETTY_FUNCTION__._ZN32pxrInternal_v0_24__pxrReserved__36PcpCompareSiblingPayloadNodeStrengthERKNS_10PcpNodeRefEiS2_)
  call void (ptr, i32, ptr, ...) @_ZN32pxrInternal_v0_24__pxrReserved__18Tf_PostErrorHelperERKNS_13TfCallContextENS_16TfDiagnosticTypeEPKcz(ptr noundef nonnull align 8 dereferenceable(33) %9, i32 noundef 1, ptr noundef @.str.1)
  store i32 0, ptr %4, align 4
  br label %56

19:                                               ; preds = %3
  %20 = load ptr, ptr %7, align 8
  %21 = call noundef i32 @_ZNK32pxrInternal_v0_24__pxrReserved__10PcpNodeRef10GetArcTypeEv(ptr noundef nonnull align 8 dereferenceable(16) %20)
  %22 = icmp slt i32 5, %21
  br i1 %22, label %23, label %24

23:                                               ; preds = %19
  store i32 -1, ptr %4, align 4
  br label %56

24:                                               ; preds = %19
  %25 = load ptr, ptr %7, align 8
  %26 = call noundef i32 @_ZNK32pxrInternal_v0_24__pxrReserved__10PcpNodeRef10GetArcTypeEv(ptr noundef nonnull align 8 dereferenceable(16) %25)
  %27 = icmp sgt i32 5, %26
  br i1 %27, label %28, label %29

28:                                               ; preds = %24
  store i32 1, ptr %4, align 4
  br label %56

29:                                               ; preds = %24
  %30 = load ptr, ptr %5, align 8
  %31 = call noundef i32 @_ZNK32pxrInternal_v0_24__pxrReserved__10PcpNodeRef17GetNamespaceDepthEv(ptr noundef nonnull align 8 dereferenceable(16) %30)
  %32 = load ptr, ptr %7, align 8
  %33 = call noundef i32 @_ZNK32pxrInternal_v0_24__pxrReserved__10PcpNodeRef17GetNamespaceDepthEv(ptr noundef nonnull align 8 dereferenceable(16) %32)
  %34 = icmp sgt i32 %31, %33
  br i1 %34, label %35, label %36

35:                                               ; preds = %29
  store i32 -1, ptr %4, align 4
  br label %56

36:                                               ; preds = %29
  %37 = load ptr, ptr %5, align 8
  %38 = call noundef i32 @_ZNK32pxrInternal_v0_24__pxrReserved__10PcpNodeRef17GetNamespaceDepthEv(ptr noundef nonnull align 8 dereferenceable(16) %37)
  %39 = load ptr, ptr %7, align 8
  %40 = call noundef i32 @_ZNK32pxrInternal_v0_24__pxrReserved__10PcpNodeRef17GetNamespaceDepthEv(ptr noundef nonnull align 8 dereferenceable(16) %39)
  %41 = icmp slt i32 %38, %40
  br i1 %41, label %42, label %43

42:                                               ; preds = %36
  store i32 1, ptr %4, align 4
  br label %56

43:                                               ; preds = %36
  %44 = load i32, ptr %6, align 4
  %45 = load ptr, ptr %7, align 8
  %46 = call noundef i32 @_ZNK32pxrInternal_v0_24__pxrReserved__10PcpNodeRef21GetSiblingNumAtOriginEv(ptr noundef nonnull align 8 dereferenceable(16) %45)
  %47 = icmp slt i32 %44, %46
  br i1 %47, label %48, label %49

48:                                               ; preds = %43
  store i32 -1, ptr %4, align 4
  br label %56

49:                                               ; preds = %43
  %50 = load i32, ptr %6, align 4
  %51 = load ptr, ptr %7, align 8
  %52 = call noundef i32 @_ZNK32pxrInternal_v0_24__pxrReserved__10PcpNodeRef21GetSiblingNumAtOriginEv(ptr noundef nonnull align 8 dereferenceable(16) %51)
  %53 = icmp sgt i32 %50, %52
  br i1 %53, label %54, label %55

54:                                               ; preds = %49
  store i32 1, ptr %4, align 4
  br label %56

55:                                               ; preds = %49
  store i32 0, ptr %4, align 4
  br label %56

56:                                               ; preds = %55, %54, %48, %42, %35, %28, %23, %18
  %57 = load i32, ptr %4, align 4
  ret i32 %57
}