; Function Attrs: mustprogress uwtable
define noundef range(i32 -1, 2) i32 @_ZN32pxrInternal_v0_24__pxrReserved__36PcpCompareSiblingPayloadNodeStrengthERKNS_10PcpNodeRefEiS2_(ptr noundef nonnull align 8 dereferenceable(16) %0, i32 noundef %1, ptr noundef nonnull align 8 dereferenceable(16) %2) local_unnamed_addr #0 {
  %4 = alloca %"class.pxrInternal_v0_24__pxrReserved__::TfCallContext", align 8
  %5 = tail call { ptr, i64 } @_ZNK32pxrInternal_v0_24__pxrReserved__10PcpNodeRef13GetParentNodeEv(ptr noundef nonnull align 8 dereferenceable(16) %2)
  %6 = extractvalue { ptr, i64 } %5, 0
  %7 = extractvalue { ptr, i64 } %5, 1
  %8 = getelementptr inbounds nuw i8, ptr %0, i64 8
  %9 = load i64, ptr %8, align 8
  %10 = icmp ne i64 %9, %7
  %11 = load ptr, ptr %0, align 8
  %12 = icmp ne ptr %11, %6
  %.not3.i = select i1 %10, i1 true, i1 %12
  br i1 %.not3.i, label %13, label %18

13:                                               ; preds = %3
  store ptr @.str, ptr %4, align 8
  %14 = getelementptr inbounds nuw i8, ptr %4, i64 8
  store ptr @__func__._ZN32pxrInternal_v0_24__pxrReserved__36PcpCompareSiblingPayloadNodeStrengthERKNS_10PcpNodeRefEiS2_, ptr %14, align 8
  %15 = getelementptr inbounds nuw i8, ptr %4, i64 16
  store i64 383, ptr %15, align 8
  %16 = getelementptr inbounds nuw i8, ptr %4, i64 24
  store ptr @__PRETTY_FUNCTION__._ZN32pxrInternal_v0_24__pxrReserved__36PcpCompareSiblingPayloadNodeStrengthERKNS_10PcpNodeRefEiS2_, ptr %16, align 8
  %17 = getelementptr inbounds nuw i8, ptr %4, i64 32
  store i8 0, ptr %17, align 8
  call void (ptr, i32, ptr, ...) @_ZN32pxrInternal_v0_24__pxrReserved__18Tf_PostErrorHelperERKNS_13TfCallContextENS_16TfDiagnosticTypeEPKcz(ptr noundef nonnull align 8 dereferenceable(33) %4, i32 noundef 1, ptr noundef nonnull @.str.1)
  br label %38

18:                                               ; preds = %3
  %19 = tail call noundef i32 @_ZNK32pxrInternal_v0_24__pxrReserved__10PcpNodeRef10GetArcTypeEv(ptr noundef nonnull align 8 dereferenceable(16) %2)
  %20 = icmp sgt i32 %19, 5
  br i1 %20, label %38, label %21

21:                                               ; preds = %18
  %22 = tail call noundef i32 @_ZNK32pxrInternal_v0_24__pxrReserved__10PcpNodeRef10GetArcTypeEv(ptr noundef nonnull align 8 dereferenceable(16) %2)
  %23 = icmp slt i32 %22, 5
  br i1 %23, label %38, label %24

24:                                               ; preds = %21
  %25 = tail call noundef i32 @_ZNK32pxrInternal_v0_24__pxrReserved__10PcpNodeRef17GetNamespaceDepthEv(ptr noundef nonnull align 8 dereferenceable(16) %0)
  %26 = tail call noundef i32 @_ZNK32pxrInternal_v0_24__pxrReserved__10PcpNodeRef17GetNamespaceDepthEv(ptr noundef nonnull align 8 dereferenceable(16) %2)
  %27 = icmp sgt i32 %25, %26
  br i1 %27, label %38, label %28

28:                                               ; preds = %24
  %29 = tail call noundef i32 @_ZNK32pxrInternal_v0_24__pxrReserved__10PcpNodeRef17GetNamespaceDepthEv(ptr noundef nonnull align 8 dereferenceable(16) %0)
  %30 = tail call noundef i32 @_ZNK32pxrInternal_v0_24__pxrReserved__10PcpNodeRef17GetNamespaceDepthEv(ptr noundef nonnull align 8 dereferenceable(16) %2)
  %31 = icmp slt i32 %29, %30
  br i1 %31, label %38, label %32

32:                                               ; preds = %28
  %33 = tail call noundef i32 @_ZNK32pxrInternal_v0_24__pxrReserved__10PcpNodeRef21GetSiblingNumAtOriginEv(ptr noundef nonnull align 8 dereferenceable(16) %2)
  %34 = icmp slt i32 %1, %33
  br i1 %34, label %38, label %35

35:                                               ; preds = %32
  %36 = tail call noundef i32 @_ZNK32pxrInternal_v0_24__pxrReserved__10PcpNodeRef21GetSiblingNumAtOriginEv(ptr noundef nonnull align 8 dereferenceable(16) %2)
  %37 = icmp sgt i32 %1, %36
  %. = zext i1 %37 to i32
  br label %38

38:                                               ; preds = %35, %32, %28, %24, %21, %18, %13
  %.0 = phi i32 [ 0, %13 ], [ -1, %18 ], [ 1, %21 ], [ -1, %24 ], [ 1, %28 ], [ -1, %32 ], [ %., %35 ]
  ret i32 %.0
}